target datalayout = "e-m:e-p270:32:32-p271:32:32-p272:64:64-i64:64-i128:128-f80:128-n8:16:32:64-S128"
target triple = "x86_64-pc-linux-gnu"

%class.QString = type { ptr }
%"class.vcg::Point3" = type { [3 x float] }
%class.PickPointsDialog = type { %class.QDockWidget, i32, %"class.Ui::pickpointsDialog", %"class.std::vector.16", ptr, ptr, i8, %class.QString, ptr, ptr, ptr, i32, ptr, %"class.vcg::Point3", %"class.vcg::Point3", i8, %class.QString }
%class.QDockWidget = type { %class.QWidget }
%class.QWidget = type { %class.QObject, %class.QPaintDevice, ptr }
%class.QObject = type { ptr, %class.QScopedPointer }
%class.QScopedPointer = type { ptr }
%class.QPaintDevice = type { ptr, i16, ptr }
%"class.Ui::pickpointsDialog" = type { %class.Ui_pickpointsDialog }
%class.Ui_pickpointsDialog = type { ptr, ptr, ptr, ptr, ptr, ptr, ptr, ptr, ptr, ptr, ptr, ptr, ptr, ptr, ptr, ptr, ptr, ptr, ptr, ptr, ptr, ptr, ptr, ptr, ptr, ptr, ptr, ptr, ptr, ptr, ptr, ptr, ptr, ptr }
%"class.std::vector.16" = type { %"struct.std::_Vector_base.17" }
%"struct.std::_Vector_base.17" = type { %"struct.std::_Vector_base<PickedPointTreeWidgetItem *, std::allocator<PickedPointTreeWidgetItem *>>::_Vector_impl" }
%"struct.std::_Vector_base<PickedPointTreeWidgetItem *, std::allocator<PickedPointTreeWidgetItem *>>::_Vector_impl" = type { %"struct.std::_Vector_base<PickedPointTreeWidgetItem *, std::allocator<PickedPointTreeWidgetItem *>>::_Vector_impl_data" }
%"struct.std::_Vector_base<PickedPointTreeWidgetItem *, std::allocator<PickedPointTreeWidgetItem *>>::_Vector_impl_data" = type { ptr, ptr, ptr }
%class.QMessageLogger = type { %class.QMessageLogContext }
%class.QMessageLogContext = type { i32, i32, ptr, ptr, ptr }

@_ZTI15QTreeWidgetItem = external constant ptr
@_ZTI25PickedPointTreeWidgetItem = linkonce_odr constant { ptr, ptr, ptr } { ptr getelementptr inbounds (ptr, ptr @_ZTVN10__cxxabiv120__si_class_type_infoE, i64 2), ptr @_ZTS25PickedPointTreeWidgetItem, ptr @_ZTI15QTreeWidgetItem }, comdat, align 8
@.str.97 = private unnamed_addr constant [8 x i8] c"default\00", align 1
@.str.110 = private unnamed_addr constant [15 x i8] c"no item picked\00", align 1

; Function Attrs: mustprogress nounwind uwtable
define linkonce_odr void @_ZN18QMessageLogContextC2EPKciS1_S1_(ptr noundef nonnull align 8 dereferenceable(32) %0, ptr noundef %1, i32 noundef %2, ptr noundef %3, ptr noundef %4) unnamed_addr #4 comdat align 2 {
  %6 = alloca ptr, align 8
  %7 = alloca ptr, align 8
  %8 = alloca i32, align 4
  %9 = alloca ptr, align 8
  %10 = alloca ptr, align 8
  store ptr %0, ptr %6, align 8
  store ptr %1, ptr %7, align 8
  store i32 %2, ptr %8, align 4
  store ptr %3, ptr %9, align 8
  store ptr %4, ptr %10, align 8
  %11 = load ptr, ptr %6, align 8
  %12 = getelementptr inbounds %class.QMessageLogContext, ptr %11, i32 0, i32 0
  store i32 2, ptr %12, align 8
  %13 = getelementptr inbounds %class.QMessageLogContext, ptr %11, i32 0, i32 1
  %14 = load i32, ptr %8, align 4
  store i32 %14, ptr %13, align 4
  %15 = getelementptr inbounds %class.QMessageLogContext, ptr %11, i32 0, i32 2
  %16 = load ptr, ptr %7, align 8
  store ptr %16, ptr %15, align 8
  %17 = getelementptr inbounds %class.QMessageLogContext, ptr %11, i32 0, i32 3
  %18 = load ptr, ptr %9, align 8
  store ptr %18, ptr %17, align 8
  %19 = getelementptr inbounds %class.QMessageLogContext, ptr %11, i32 0, i32 4
  %20 = load ptr, ptr %10, align 8
  store ptr %20, ptr %19, align 8
  ret void
}

; Function Attrs: mustprogress nounwind uwtable
define linkonce_odr void @_ZN14QMessageLoggerC2EPKciS1_(ptr noundef nonnull align 8 dereferenceable(32) %0, ptr noundef %1, i32 noundef %2, ptr noundef %3) unnamed_addr #4 comdat align 2 {
  %5 = alloca ptr, align 8
  %6 = alloca ptr, align 8
  %7 = alloca i32, align 4
  %8 = alloca ptr, align 8
  store ptr %0, ptr %5, align 8
  store ptr %1, ptr %6, align 8
  store i32 %2, ptr %7, align 4
  store ptr %3, ptr %8, align 8
  %9 = load ptr, ptr %5, align 8
  %10 = getelementptr inbounds %class.QMessageLogger, ptr %9, i32 0, i32 0
  %11 = load ptr, ptr %6, align 8
  %12 = load i32, ptr %7, align 4
  %13 = load ptr, ptr %8, align 8
  call void @_ZN18QMessageLogContextC2EPKciS1_S1_(ptr noundef nonnull align 8 dereferenceable(32) %10, ptr noundef %11, i32 noundef %12, ptr noundef %13, ptr noundef @.str.97) #3
  ret void
}

; Function Attrs: mustprogress uwtable
define void @_ZN16PickPointsDialog12redrawPointsEv(ptr noundef nonnull align 8 dereferenceable(464) %0) #5 align 2 {
  %2 = alloca ptr, align 8
  store ptr %0, ptr %2, align 8
  %3 = load ptr, ptr %2, align 8
  %4 = getelementptr inbounds %class.PickPointsDialog, ptr %3, i32 0, i32 9
  %5 = load ptr, ptr %4, align 8
  call void @_ZN7QWidget6updateEv(ptr noundef nonnull align 8 dereferenceable(48) %5)
  ret void
}

; Function Attrs: mustprogress uwtable
define void @_ZN16PickPointsDialog21clearHighlightedPointEv(ptr noundef nonnull align 8 dereferenceable(464) %0) #5 align 2 {
  %2 = alloca ptr, align 8
  %3 = alloca ptr, align 8
  %4 = alloca ptr, align 8
  %5 = alloca %class.QMessageLogger, align 8
  store ptr %0, ptr %2, align 8
  %6 = load ptr, ptr %2, align 8
  %7 = getelementptr inbounds %class.PickPointsDialog, ptr %6, i32 0, i32 2
  %8 = getelementptr inbounds %class.Ui_pickpointsDialog, ptr %7, i32 0, i32 11
  %9 = load ptr, ptr %8, align 8
  %10 = call noundef ptr @_ZNK11QTreeWidget11currentItemEv(ptr noundef nonnull align 8 dereferenceable(48) %9)
  store ptr %10, ptr %3, align 8
  %11 = load ptr, ptr %3, align 8
  %12 = icmp ne ptr null, %11
  br i1 %12, label %13, label %22

13:                                               ; preds = %1
  %14 = load ptr, ptr %3, align 8
  %15 = icmp eq ptr %14, null
  br i1 %15, label %18, label %16

16:                                               ; preds = %13
  %17 = call ptr @__dynamic_cast(ptr %14, ptr @_ZTI15QTreeWidgetItem, ptr @_ZTI25PickedPointTreeWidgetItem, i64 0) #3
  br label %19

18:                                               ; preds = %13
  br label %19

19:                                               ; preds = %18, %16
  %20 = phi ptr [ %17, %16 ], [ null, %18 ]
  store ptr %20, ptr %4, align 8
  %21 = load ptr, ptr %4, align 8
  call void @_ZN25PickedPointTreeWidgetItem10clearPointEv(ptr noundef nonnull align 8 dereferenceable(85) %21)
  call void @_ZN16PickPointsDialog12redrawPointsEv(ptr noundef nonnull align 8 dereferenceable(464) %6)
  br label %23

22:                                               ; preds = %1
  call void @_ZN14QMessageLoggerC2EPKciS1_(ptr noundef nonnull align 8 dereferenceable(32) %5, ptr noundef null, i32 noundef 0, ptr noundef null)
  call void (ptr, ptr, ...) @_ZNK14QMessageLogger5debugEPKcz(ptr noundef nonnull align 8 dereferenceable(32) %5, ptr noundef @.str.110)
  br label %23

23:                                               ; preds = %22, %19
  ret void
}