; Function Attrs: mustprogress uwtable
define void @_ZN16PickPointsDialog21clearHighlightedPointEv(ptr nocapture noundef nonnull readonly align 8 dereferenceable(464) %0) local_unnamed_addr #9 align 2 {
  %2 = alloca %class.QMessageLogger, align 8
  %3 = getelementptr inbounds i8, ptr %0, i64 144
  %4 = load ptr, ptr %3, align 8
  %5 = tail call noundef ptr @_ZNK11QTreeWidget11currentItemEv(ptr noundef nonnull align 8 dereferenceable(48) %4)
  %.not = icmp eq ptr %5, null
  br i1 %.not, label %10, label %6

6:                                                ; preds = %1
  %7 = tail call ptr @__dynamic_cast(ptr nonnull %5, ptr nonnull @_ZTI15QTreeWidgetItem, ptr nonnull @_ZTI25PickedPointTreeWidgetItem, i64 0) #27
  tail call void @_ZN25PickedPointTreeWidgetItem10clearPointEv(ptr noundef nonnull align 8 dereferenceable(85) %7)
  %8 = getelementptr inbounds i8, ptr %0, i64 392
  %9 = load ptr, ptr %8, align 8
  tail call void @_ZN7QWidget6updateEv(ptr noundef nonnull align 8 dereferenceable(48) %9)
  br label %13

10:                                               ; preds = %1
  store i32 2, ptr %2, align 8
  %11 = getelementptr inbounds i8, ptr %2, i64 4
  %12 = getelementptr inbounds i8, ptr %2, i64 24
  call void @llvm.memset.p0.i64(ptr noundef nonnull align 4 dereferenceable(20) %11, i8 0, i64 20, i1 false)
  store ptr @.str.97, ptr %12, align 8
  call void (ptr, ptr, ...) @_ZNK14QMessageLogger5debugEPKcz(ptr noundef nonnull align 8 dereferenceable(32) %2, ptr noundef nonnull @.str.110)
  br label %13

13:                                               ; preds = %10, %6
  ret void
}